; Function Attrs: nounwind uwtable
define ptr @l___private_Lean_Server_Completion_CompletionCollectors_0__Lean_Server_Completion_idCompletionCore___lambda__8(ptr noundef %0, ptr noundef %1, i8 noundef zeroext %2, ptr noundef %3, ptr readnone captures(none) %4, ptr noundef %5, ptr noundef %6, ptr noundef %7, ptr noundef %8, ptr noundef %9, ptr noundef %10, ptr noundef %11, ptr noundef %12) local_unnamed_addr #0 {
  %14 = ptrtoint ptr %1 to i64
  %15 = and i64 %14, 1
  %.not.i32 = icmp eq i64 %15, 0
  br i1 %.not.i32, label %19, label %16

16:                                               ; preds = %13
  %17 = lshr i64 %14, 1
  %18 = trunc i64 %17 to i32
  br label %lean_obj_tag.exit

19:                                               ; preds = %13
  %20 = getelementptr i8, ptr %1, i64 4
  %.val.i = load i32, ptr %20, align 4
  %21 = lshr i32 %.val.i, 24
  br label %lean_obj_tag.exit

lean_obj_tag.exit:                                ; preds = %16, %19
  %.0.i = phi i32 [ %18, %16 ], [ %21, %19 ]
  %22 = icmp eq i32 %.0.i, 0
  br i1 %22, label %23, label %25

23:                                               ; preds = %lean_obj_tag.exit
  %24 = tail call ptr @l___private_Lean_Server_Completion_CompletionCollectors_0__Lean_Server_Completion_idCompletionCore___lambda__7(ptr noundef %0, i8 noundef zeroext %2, ptr noundef %3, ptr nonnull poison, ptr noundef %5, ptr noundef %6, ptr noundef %7, ptr noundef %8, ptr noundef %9, ptr noundef %10, ptr noundef %11, ptr noundef %12)
  br label %64

25:                                               ; preds = %lean_obj_tag.exit
  %26 = getelementptr inbounds nuw i8, ptr %1, i64 8
  %27 = load ptr, ptr %26, align 8, !tbaa !4
  %28 = ptrtoint ptr %27 to i64
  %29 = and i64 %28, 1
  %.not = icmp eq i64 %29, 0
  br i1 %.not, label %30, label %lean_inc.exit

30:                                               ; preds = %25
  %.val.i33 = load i32, ptr %27, align 4, !tbaa !8
  %31 = icmp sgt i32 %.val.i33, 0
  br i1 %31, label %32, label %34, !prof !11

32:                                               ; preds = %30
  %33 = add nuw i32 %.val.i33, 1
  store i32 %33, ptr %27, align 4, !tbaa !8
  br label %lean_inc.exit

34:                                               ; preds = %30
  %.not.i34 = icmp eq i32 %.val.i33, 0
  br i1 %.not.i34, label %lean_inc.exit, label %35

35:                                               ; preds = %34
  tail call void @lean_inc_ref_cold(ptr noundef nonnull %27) #5
  br label %lean_inc.exit

lean_inc.exit:                                    ; preds = %35, %34, %32, %25
  br i1 %.not.i32, label %36, label %lean_dec.exit

36:                                               ; preds = %lean_inc.exit
  %37 = load i32, ptr %1, align 4, !tbaa !8
  %38 = icmp sgt i32 %37, 1
  br i1 %38, label %39, label %41, !prof !11

39:                                               ; preds = %36
  %40 = add nsw i32 %37, -1
  store i32 %40, ptr %1, align 4, !tbaa !8
  br label %lean_dec.exit

41:                                               ; preds = %36
  %.not.i = icmp eq i32 %37, 0
  br i1 %.not.i, label %lean_dec.exit, label %42

42:                                               ; preds = %41
  tail call void @lean_dec_ref_cold(ptr noundef nonnull %1) #5
  br label %lean_dec.exit

lean_dec.exit:                                    ; preds = %42, %41, %39, %lean_inc.exit
  %43 = tail call ptr @l___private_Lean_Server_Completion_CompletionCollectors_0__Lean_Server_Completion_truncate_go(ptr noundef %27, ptr noundef %3)
  %44 = getelementptr inbounds nuw i8, ptr %43, i64 8
  %45 = load ptr, ptr %44, align 8, !tbaa !4
  %46 = ptrtoint ptr %45 to i64
  %47 = and i64 %46, 1
  %.not.i35 = icmp eq i64 %47, 0
  br i1 %.not.i35, label %48, label %lean_inc.exit.i

48:                                               ; preds = %lean_dec.exit
  %.val.i.i = load i32, ptr %45, align 4, !tbaa !8
  %49 = icmp sgt i32 %.val.i.i, 0
  br i1 %49, label %50, label %52, !prof !11

50:                                               ; preds = %48
  %51 = add nuw i32 %.val.i.i, 1
  store i32 %51, ptr %45, align 4, !tbaa !8
  br label %lean_inc.exit.i

52:                                               ; preds = %48
  %.not.i6.i = icmp eq i32 %.val.i.i, 0
  br i1 %.not.i6.i, label %lean_inc.exit.i, label %53

53:                                               ; preds = %52
  tail call void @lean_inc_ref_cold(ptr noundef nonnull %45) #5
  br label %lean_inc.exit.i

lean_inc.exit.i:                                  ; preds = %53, %52, %50, %lean_dec.exit
  %54 = ptrtoint ptr %43 to i64
  %55 = and i64 %54, 1
  %.not7.i = icmp eq i64 %55, 0
  br i1 %.not7.i, label %56, label %l___private_Lean_Server_Completion_CompletionCollectors_0__Lean_Server_Completion_truncate.exit

56:                                               ; preds = %lean_inc.exit.i
  %57 = load i32, ptr %43, align 4, !tbaa !8
  %58 = icmp sgt i32 %57, 1
  br i1 %58, label %59, label %61, !prof !11

59:                                               ; preds = %56
  %60 = add nsw i32 %57, -1
  store i32 %60, ptr %43, align 4, !tbaa !8
  br label %l___private_Lean_Server_Completion_CompletionCollectors_0__Lean_Server_Completion_truncate.exit

61:                                               ; preds = %56
  %.not.i.i = icmp eq i32 %57, 0
  br i1 %.not.i.i, label %l___private_Lean_Server_Completion_CompletionCollectors_0__Lean_Server_Completion_truncate.exit, label %62

62:                                               ; preds = %61
  tail call void @lean_dec_ref_cold(ptr noundef nonnull %43) #5
  br label %l___private_Lean_Server_Completion_CompletionCollectors_0__Lean_Server_Completion_truncate.exit

l___private_Lean_Server_Completion_CompletionCollectors_0__Lean_Server_Completion_truncate.exit: ; preds = %lean_inc.exit.i, %59, %61, %62
  %63 = tail call ptr @l___private_Lean_Server_Completion_CompletionCollectors_0__Lean_Server_Completion_idCompletionCore___lambda__7(ptr noundef %0, i8 noundef zeroext 0, ptr noundef %45, ptr nonnull poison, ptr noundef %5, ptr noundef %6, ptr noundef %7, ptr noundef %8, ptr noundef %9, ptr noundef %10, ptr noundef %11, ptr noundef %12)
  br label %64

64:                                               ; preds = %l___private_Lean_Server_Completion_CompletionCollectors_0__Lean_Server_Completion_truncate.exit, %23
  %.0 = phi ptr [ %24, %23 ], [ %63, %l___private_Lean_Server_Completion_CompletionCollectors_0__Lean_Server_Completion_truncate.exit ]
  ret ptr %.0
}